target datalayout = "e-m:e-p270:32:32-p271:32:32-p272:64:64-i64:64-i128:128-f80:128-n8:16:32:64-S128"
target triple = "x86_64-pc-linux-gnu"

%class.QString = type { %struct.QArrayDataPointer }
%struct.QArrayDataPointer = type { ptr, ptr, i64 }
%class.FollowStreamDialog = type <{ %class.WiresharkDialog.base, [3 x i8], ptr, ptr, ptr, ptr, ptr, ptr, %struct._follow_info, ptr, %class.QString, %class.QString, %class.QString, i32, i32, i32, i32, i32, i8, [3 x i8], %struct.nstime_t, i32, i8, i8, [2 x i8], i32, [4 x i8] }>
%class.WiresharkDialog.base = type <{ %class.GeometryStateDialog, ptr, i8, [7 x i8], %class.QString, %class.QList, i32, i8 }>
%class.GeometryStateDialog = type { %class.QDialog, %class.QString, ptr }
%class.QDialog = type { %class.QWidget }
%class.QWidget = type { %class.QObject, %class.QPaintDevice.base, ptr }
%class.QObject = type { ptr, %class.QScopedPointer }
%class.QScopedPointer = type { ptr }
%class.QPaintDevice.base = type <{ ptr, i16 }>
%class.QList = type { %struct.QArrayDataPointer.0 }
%struct.QArrayDataPointer.0 = type { ptr, ptr, i64 }
%struct._follow_info = type { i32, ptr, ptr, [2 x i32], [2 x i32], [2 x ptr], i32, i32, %struct._address, %struct._address, ptr, i64 }
%struct._address = type { i32, i32, ptr, ptr }
%struct.nstime_t = type { i64, i32 }
%class.Ui_FollowStreamDialog = type { ptr, ptr, ptr, ptr, ptr, ptr, ptr, ptr, ptr, ptr, ptr, ptr, ptr, ptr, ptr, ptr, ptr, ptr, ptr, ptr, ptr }
%class.QBasicAtomicInteger = type { %"struct.std::atomic.39" }
%"struct.std::atomic.39" = type { %"struct.std::__atomic_base.40" }
%"struct.std::__atomic_base.40" = type { i32 }
%class.QEvent = type { ptr, i16, i8, i8, i8, i8, i16 }
%class.QKeyEvent = type <{ %class.QInputEvent, %class.QString, i32, i32, i32, i32, i16, [6 x i8] }>
%class.QInputEvent = type { %class.QEvent, ptr, i64, %class.QFlags.30, i32 }
%class.QFlags.30 = type { i32 }
%struct.QArrayData = type { %class.QBasicAtomicInteger, %class.QFlags.41, i64 }
%class.QFlags.41 = type { i32 }

; Function Attrs: mustprogress nounwind null_pointer_is_valid sspstrong uwtable
define linkonce_odr noundef i32 @_ZNSt13__atomic_baseIiEppEv(ptr noundef align 4 dereferenceable_or_null(4) %0) #1 comdat align 2 {
  %2 = alloca ptr, align 8
  %3 = alloca i32, align 4
  %4 = alloca i32, align 4
  store ptr %0, ptr %2, align 8
  %5 = load ptr, ptr %2, align 8
  %6 = getelementptr inbounds nuw %"struct.std::__atomic_base.40", ptr %5, i32 0, i32 0
  store i32 1, ptr %3, align 4
  %7 = load i32, ptr %3, align 4
  %8 = atomicrmw add ptr %6, i32 %7 seq_cst, align 4
  %9 = add i32 %8, %7
  store i32 %9, ptr %4, align 4
  %10 = load i32, ptr %4, align 4
  ret i32 %10
}

; Function Attrs: mustprogress nounwind null_pointer_is_valid sspstrong uwtable
define linkonce_odr noundef i32 @_ZNSt13__atomic_baseIiEmmEv(ptr noundef align 4 dereferenceable_or_null(4) %0) #1 comdat align 2 {
  %2 = alloca ptr, align 8
  %3 = alloca i32, align 4
  %4 = alloca i32, align 4
  store ptr %0, ptr %2, align 8
  %5 = load ptr, ptr %2, align 8
  %6 = getelementptr inbounds nuw %"struct.std::__atomic_base.40", ptr %5, i32 0, i32 0
  store i32 1, ptr %3, align 4
  %7 = load i32, ptr %3, align 4
  %8 = atomicrmw sub ptr %6, i32 %7 seq_cst, align 4
  %9 = sub i32 %8, %7
  store i32 %9, ptr %4, align 4
  %10 = load i32, ptr %4, align 4
  ret i32 %10
}

; Function Attrs: noinline noreturn nounwind null_pointer_is_valid sspstrong uwtable
define linkonce_odr hidden void @__clang_call_terminate(ptr noundef %0) #13 comdat {
  %2 = call ptr @__cxa_begin_catch(ptr %0) #2
  call void @_ZSt9terminatev() #28
  unreachable
}

; Function Attrs: inlinehint mustprogress nounwind null_pointer_is_valid sspstrong uwtable
define linkonce_odr noundef zeroext i1 @_ZN10QAtomicOpsIiE3refIiEEbRSt6atomicIT_E(ptr noundef align 4 dereferenceable(4) %0) #6 comdat align 2 {
  %2 = alloca ptr, align 8
  store ptr %0, ptr %2, align 8
  %3 = load ptr, ptr %2, align 8
  %4 = call noundef i32 @_ZNSt13__atomic_baseIiEppEv(ptr noundef align 4 dereferenceable_or_null(4) %3) #2
  %5 = icmp ne i32 %4, 0
  ret i1 %5
}

; Function Attrs: inlinehint mustprogress nounwind null_pointer_is_valid sspstrong uwtable
define linkonce_odr noundef zeroext i1 @_ZN10QAtomicOpsIiE5derefIiEEbRSt6atomicIT_E(ptr noundef align 4 dereferenceable(4) %0) #6 comdat align 2 {
  %2 = alloca ptr, align 8
  store ptr %0, ptr %2, align 8
  %3 = load ptr, ptr %2, align 8
  %4 = call noundef i32 @_ZNSt13__atomic_baseIiEmmEv(ptr noundef align 4 dereferenceable_or_null(4) %3) #2
  %5 = icmp ne i32 %4, 0
  ret i1 %5
}

; Function Attrs: mustprogress nounwind null_pointer_is_valid sspstrong uwtable
define linkonce_odr noundef zeroext i1 @_ZN19QBasicAtomicIntegerIiE3refEv(ptr noundef align 4 dereferenceable_or_null(4) %0) #1 comdat align 2 personality ptr @__gxx_personality_v0 {
  %2 = alloca ptr, align 8
  store ptr %0, ptr %2, align 8
  %3 = load ptr, ptr %2, align 8
  %4 = getelementptr inbounds nuw %class.QBasicAtomicInteger, ptr %3, i32 0, i32 0
  %5 = invoke noundef zeroext i1 @_ZN10QAtomicOpsIiE3refIiEEbRSt6atomicIT_E(ptr noundef align 4 dereferenceable(4) %4)
          to label %6 unwind label %7

6:                                                ; preds = %1
  ret i1 %5

7:                                                ; preds = %1
  %8 = landingpad { ptr, i32 }
          catch ptr null
  %9 = extractvalue { ptr, i32 } %8, 0
  call void @__clang_call_terminate(ptr %9) #28
  unreachable
}

; Function Attrs: mustprogress nounwind null_pointer_is_valid sspstrong uwtable
define linkonce_odr noundef zeroext i1 @_ZN19QBasicAtomicIntegerIiE5derefEv(ptr noundef align 4 dereferenceable_or_null(4) %0) #1 comdat align 2 {
  %2 = alloca ptr, align 8
  store ptr %0, ptr %2, align 8
  %3 = load ptr, ptr %2, align 8
  %4 = getelementptr inbounds nuw %class.QBasicAtomicInteger, ptr %3, i32 0, i32 0
  %5 = call noundef zeroext i1 @_ZN10QAtomicOpsIiE5derefIiEEbRSt6atomicIT_E(ptr noundef align 4 dereferenceable(4) %4) #2
  ret i1 %5
}

; Function Attrs: mustprogress nounwind null_pointer_is_valid sspstrong uwtable
define linkonce_odr noundef zeroext i1 @_ZN10QArrayData3refEv(ptr noundef align 8 dereferenceable_or_null(16) %0) #1 comdat align 2 {
  %2 = alloca ptr, align 8
  store ptr %0, ptr %2, align 8
  %3 = load ptr, ptr %2, align 8
  %4 = getelementptr inbounds nuw %struct.QArrayData, ptr %3, i32 0, i32 0
  %5 = call noundef zeroext i1 @_ZN19QBasicAtomicIntegerIiE3refEv(ptr noundef align 4 dereferenceable_or_null(4) %4) #2
  ret i1 true
}

; Function Attrs: mustprogress nounwind null_pointer_is_valid sspstrong uwtable
define linkonce_odr noundef zeroext i1 @_ZN10QArrayData5derefEv(ptr noundef align 8 dereferenceable_or_null(16) %0) #1 comdat align 2 {
  %2 = alloca ptr, align 8
  store ptr %0, ptr %2, align 8
  %3 = load ptr, ptr %2, align 8
  %4 = getelementptr inbounds nuw %struct.QArrayData, ptr %3, i32 0, i32 0
  %5 = call noundef zeroext i1 @_ZN19QBasicAtomicIntegerIiE5derefEv(ptr noundef align 4 dereferenceable_or_null(4) %4) #2
  ret i1 %5
}

; Function Attrs: mustprogress nounwind null_pointer_is_valid sspstrong uwtable
define linkonce_odr void @_ZN17QArrayDataPointerIDsE3refEv(ptr noundef align 8 dereferenceable_or_null(24) %0) #1 comdat align 2 {
  %2 = alloca ptr, align 8
  store ptr %0, ptr %2, align 8
  %3 = load ptr, ptr %2, align 8
  %4 = getelementptr inbounds nuw %struct.QArrayDataPointer, ptr %3, i32 0, i32 0
  %5 = load ptr, ptr %4, align 8
  %6 = icmp ne ptr %5, null
  br i1 %6, label %7, label %11

7:                                                ; preds = %1
  %8 = getelementptr inbounds nuw %struct.QArrayDataPointer, ptr %3, i32 0, i32 0
  %9 = load ptr, ptr %8, align 8
  %10 = call noundef zeroext i1 @_ZN10QArrayData3refEv(ptr noundef align 8 dereferenceable_or_null(16) %9) #2
  br label %11

11:                                               ; preds = %7, %1
  ret void
}

; Function Attrs: mustprogress nounwind null_pointer_is_valid sspstrong uwtable
define linkonce_odr void @_ZN15QTypedArrayDataIDsE10deallocateEP10QArrayData(ptr noundef %0) #1 comdat align 2 {
  %2 = alloca ptr, align 8
  store ptr %0, ptr %2, align 8
  %3 = load ptr, ptr %2, align 8
  call void @_ZN10QArrayData10deallocateEPS_xx(ptr noundef %3, i64 noundef 2, i64 noundef 8) #2
  ret void
}

; Function Attrs: mustprogress nounwind null_pointer_is_valid sspstrong uwtable
define linkonce_odr void @_ZN9QtPrivate12QPodArrayOpsIDsE10destroyAllEv(ptr noundef align 8 dereferenceable_or_null(24) %0) #1 comdat align 2 {
  %2 = alloca ptr, align 8
  store ptr %0, ptr %2, align 8
  ret void
}

; Function Attrs: mustprogress nounwind null_pointer_is_valid sspstrong uwtable
define linkonce_odr noundef ptr @_ZN17QArrayDataPointerIDsEptEv(ptr noundef align 8 dereferenceable_or_null(24) %0) #1 comdat align 2 {
  %2 = alloca ptr, align 8
  store ptr %0, ptr %2, align 8
  %3 = load ptr, ptr %2, align 8
  ret ptr %3
}

; Function Attrs: mustprogress nounwind null_pointer_is_valid sspstrong uwtable
define linkonce_odr noundef zeroext i1 @_ZN17QArrayDataPointerIDsE5derefEv(ptr noundef align 8 dereferenceable_or_null(24) %0) #1 comdat align 2 {
  %2 = alloca ptr, align 8
  store ptr %0, ptr %2, align 8
  %3 = load ptr, ptr %2, align 8
  %4 = getelementptr inbounds nuw %struct.QArrayDataPointer, ptr %3, i32 0, i32 0
  %5 = load ptr, ptr %4, align 8
  %6 = icmp ne ptr %5, null
  br i1 %6, label %7, label %11

7:                                                ; preds = %1
  %8 = getelementptr inbounds nuw %struct.QArrayDataPointer, ptr %3, i32 0, i32 0
  %9 = load ptr, ptr %8, align 8
  %10 = call noundef zeroext i1 @_ZN10QArrayData5derefEv(ptr noundef align 8 dereferenceable_or_null(16) %9) #2
  br label %11

11:                                               ; preds = %7, %1
  %12 = phi i1 [ true, %1 ], [ %10, %7 ]
  ret i1 %12
}

; Function Attrs: mustprogress nounwind null_pointer_is_valid sspstrong uwtable
define linkonce_odr void @_ZN17QArrayDataPointerIDsEC2ERKS0_(ptr noundef align 8 dereferenceable_or_null(24) %0, ptr noundef align 8 dereferenceable(24) %1) unnamed_addr #1 comdat align 2 {
  %3 = alloca ptr, align 8
  %4 = alloca ptr, align 8
  store ptr %0, ptr %3, align 8
  store ptr %1, ptr %4, align 8
  %5 = load ptr, ptr %3, align 8
  %6 = getelementptr inbounds nuw %struct.QArrayDataPointer, ptr %5, i32 0, i32 0
  %7 = load ptr, ptr %4, align 8
  %8 = getelementptr inbounds nuw %struct.QArrayDataPointer, ptr %7, i32 0, i32 0
  %9 = load ptr, ptr %8, align 8
  store ptr %9, ptr %6, align 8
  %10 = getelementptr inbounds nuw %struct.QArrayDataPointer, ptr %5, i32 0, i32 1
  %11 = load ptr, ptr %4, align 8
  %12 = getelementptr inbounds nuw %struct.QArrayDataPointer, ptr %11, i32 0, i32 1
  %13 = load ptr, ptr %12, align 8
  store ptr %13, ptr %10, align 8
  %14 = getelementptr inbounds nuw %struct.QArrayDataPointer, ptr %5, i32 0, i32 2
  %15 = load ptr, ptr %4, align 8
  %16 = getelementptr inbounds nuw %struct.QArrayDataPointer, ptr %15, i32 0, i32 2
  %17 = load i64, ptr %16, align 8
  store i64 %17, ptr %14, align 8
  call void @_ZN17QArrayDataPointerIDsE3refEv(ptr noundef align 8 dereferenceable_or_null(24) %5) #2
  ret void
}

; Function Attrs: mustprogress nounwind null_pointer_is_valid sspstrong uwtable
define linkonce_odr void @_ZN17QArrayDataPointerIDsED2Ev(ptr noundef align 8 dereferenceable_or_null(24) %0) unnamed_addr #1 comdat align 2 {
  %2 = alloca ptr, align 8
  store ptr %0, ptr %2, align 8
  %3 = load ptr, ptr %2, align 8
  %4 = call noundef zeroext i1 @_ZN17QArrayDataPointerIDsE5derefEv(ptr noundef align 8 dereferenceable_or_null(24) %3) #2
  br i1 %4, label %9, label %5

5:                                                ; preds = %1
  %6 = call noundef ptr @_ZN17QArrayDataPointerIDsEptEv(ptr noundef align 8 dereferenceable_or_null(24) %3) #2
  call void @_ZN9QtPrivate12QPodArrayOpsIDsE10destroyAllEv(ptr noundef align 8 dereferenceable_or_null(24) %6) #2
  %7 = getelementptr inbounds nuw %struct.QArrayDataPointer, ptr %3, i32 0, i32 0
  %8 = load ptr, ptr %7, align 8
  call void @_ZN15QTypedArrayDataIDsE10deallocateEP10QArrayData(ptr noundef %8) #2
  br label %9

9:                                                ; preds = %5, %1
  ret void
}

; Function Attrs: inlinehint mustprogress nounwind null_pointer_is_valid sspstrong uwtable
define linkonce_odr void @_ZN7QStringC2ERKS_(ptr noundef align 8 dereferenceable_or_null(24) %0, ptr noundef align 8 dereferenceable(24) %1) unnamed_addr #6 comdat align 2 {
  %3 = alloca ptr, align 8
  %4 = alloca ptr, align 8
  store ptr %0, ptr %3, align 8
  store ptr %1, ptr %4, align 8
  %5 = load ptr, ptr %3, align 8
  %6 = getelementptr inbounds nuw %class.QString, ptr %5, i32 0, i32 0
  %7 = load ptr, ptr %4, align 8
  %8 = getelementptr inbounds nuw %class.QString, ptr %7, i32 0, i32 0
  call void @_ZN17QArrayDataPointerIDsEC2ERKS0_(ptr noundef align 8 dereferenceable_or_null(24) %6, ptr noundef align 8 dereferenceable(24) %8) #2
  ret void
}

; Function Attrs: inlinehint mustprogress null_pointer_is_valid sspstrong uwtable
define linkonce_odr void @_ZN7QWidget8setFocusEv(ptr noundef align 8 dereferenceable_or_null(40) %0) #8 comdat align 2 {
  %2 = alloca ptr, align 8
  store ptr %0, ptr %2, align 8
  %3 = load ptr, ptr %2, align 8
  call void @_ZN7QWidget8setFocusEN2Qt11FocusReasonE(ptr noundef align 8 dereferenceable_or_null(40) %3, i32 noundef 7)
  ret void
}

; Function Attrs: inlinehint mustprogress nounwind null_pointer_is_valid sspstrong uwtable
define linkonce_odr void @_ZN7QStringD2Ev(ptr noundef align 8 dereferenceable_or_null(24) %0) unnamed_addr #6 comdat align 2 {
  %2 = alloca ptr, align 8
  store ptr %0, ptr %2, align 8
  %3 = load ptr, ptr %2, align 8
  %4 = getelementptr inbounds nuw %class.QString, ptr %3, i32 0, i32 0
  call void @_ZN17QArrayDataPointerIDsED2Ev(ptr noundef align 8 dereferenceable_or_null(24) %4) #2
  ret void
}

; Function Attrs: inlinehint mustprogress nounwind null_pointer_is_valid sspstrong uwtable
define linkonce_odr noundef zeroext i1 @_ZNK7QString7isEmptyEv(ptr noundef align 8 dereferenceable_or_null(24) %0) #6 comdat align 2 {
  %2 = alloca ptr, align 8
  store ptr %0, ptr %2, align 8
  %3 = load ptr, ptr %2, align 8
  %4 = getelementptr inbounds nuw %class.QString, ptr %3, i32 0, i32 0
  %5 = getelementptr inbounds nuw %struct.QArrayDataPointer, ptr %4, i32 0, i32 2
  %6 = load i64, ptr %5, align 8
  %7 = icmp eq i64 %6, 0
  ret i1 %7
}

; Function Attrs: inlinehint mustprogress nounwind null_pointer_is_valid sspstrong uwtable
define linkonce_odr void @_ZNK9QKeyEvent4textEv(ptr dead_on_unwind noalias writable sret(%class.QString) align 8 %0, ptr noundef align 8 dereferenceable_or_null(82) %1) #6 comdat align 2 {
  %3 = alloca ptr, align 8
  %4 = alloca ptr, align 8
  store ptr %0, ptr %3, align 8
  store ptr %1, ptr %4, align 8
  %5 = load ptr, ptr %4, align 8
  %6 = getelementptr inbounds nuw %class.QKeyEvent, ptr %5, i32 0, i32 1
  call void @_ZN7QStringC2ERKS_(ptr noundef align 8 dereferenceable_or_null(24) %0, ptr noundef align 8 dereferenceable(24) %6) #2
  ret void
}

; Function Attrs: inlinehint mustprogress nounwind null_pointer_is_valid sspstrong uwtable
define linkonce_odr noundef i32 @_ZNK6QEvent4typeEv(ptr noundef align 8 dereferenceable_or_null(16) %0) #6 comdat align 2 {
  %2 = alloca ptr, align 8
  store ptr %0, ptr %2, align 8
  %3 = load ptr, ptr %2, align 8
  %4 = getelementptr inbounds nuw %class.QEvent, ptr %3, i32 0, i32 1
  %5 = load i16, ptr %4, align 8
  %6 = zext i16 %5 to i32
  ret i32 %6
}

; Function Attrs: mustprogress null_pointer_is_valid sspstrong uwtable
define noundef zeroext i1 @_ZN18FollowStreamDialog11eventFilterEP7QObjectP6QEvent(ptr noundef align 8 dereferenceable_or_null(452) %0, ptr noundef %1, ptr noundef %2) unnamed_addr #3 align 2 personality ptr @__gxx_personality_v0 {
  %4 = alloca i1, align 1
  %5 = alloca ptr, align 8
  %6 = alloca ptr, align 8
  %7 = alloca ptr, align 8
  %8 = alloca ptr, align 8
  %9 = alloca %class.QString, align 8
  %10 = alloca i1, align 1
  %11 = alloca i1, align 1
  %12 = alloca ptr, align 8
  %13 = alloca i32, align 4
  %14 = alloca i32, align 4
  store ptr %0, ptr %5, align 8
  store ptr %1, ptr %6, align 8
  store ptr %2, ptr %7, align 8
  %15 = load ptr, ptr %5, align 8
  %16 = getelementptr inbounds nuw %class.FollowStreamDialog, ptr %15, i32 0, i32 2
  %17 = load ptr, ptr %16, align 8
  %18 = getelementptr inbounds nuw %class.Ui_FollowStreamDialog, ptr %17, i32 0, i32 1
  %19 = load ptr, ptr %18, align 8
  %20 = call noundef zeroext i1 @_ZNK7QWidget8hasFocusEv(ptr noundef align 8 dereferenceable_or_null(40) %19)
  br i1 %20, label %21, label %72

21:                                               ; preds = %3
  %22 = load ptr, ptr %7, align 8
  %23 = call noundef i32 @_ZNK6QEvent4typeEv(ptr noundef align 8 dereferenceable_or_null(16) %22)
  %24 = icmp eq i32 %23, 6
  br i1 %24, label %25, label %72

25:                                               ; preds = %21
  call void @llvm.lifetime.start.p0(i64 8, ptr %8) #2
  %26 = load ptr, ptr %7, align 8
  store ptr %26, ptr %8, align 8
  %27 = load ptr, ptr %8, align 8
  %28 = call noundef zeroext i1 @_ZNK9QKeyEvent7matchesEN12QKeySequence11StandardKeyE(ptr noundef align 8 dereferenceable_or_null(82) %27, i32 noundef 26)
  store i1 false, ptr %10, align 1
  store i1 false, ptr %11, align 1
  br i1 %28, label %36, label %29

29:                                               ; preds = %25
  %30 = load ptr, ptr %8, align 8
  %31 = call noundef zeroext i1 @_ZNK9QKeyEvent7matchesEN12QKeySequence11StandardKeyE(ptr noundef align 8 dereferenceable_or_null(82) %30, i32 noundef 9)
  br i1 %31, label %36, label %32

32:                                               ; preds = %29
  call void @llvm.lifetime.start.p0(i64 24, ptr %9) #2
  store i1 true, ptr %10, align 1
  %33 = load ptr, ptr %8, align 8
  call void @_ZNK9QKeyEvent4textEv(ptr dead_on_unwind writable sret(%class.QString) align 8 %9, ptr noundef align 8 dereferenceable_or_null(82) %33)
  store i1 true, ptr %11, align 1
  %34 = invoke noundef zeroext i1 @_ZNK7QString7isEmptyEv(ptr noundef align 8 dereferenceable_or_null(24) %9)
          to label %35 unwind label %45

35:                                               ; preds = %32
  br label %36

36:                                               ; preds = %35, %29, %25
  %37 = phi i1 [ true, %29 ], [ true, %25 ], [ %34, %35 ]
  %38 = load i1, ptr %11, align 1
  br i1 %38, label %39, label %40

39:                                               ; preds = %36
  call void @_ZN7QStringD2Ev(ptr noundef align 8 dereferenceable_or_null(24) %9) #2
  br label %40

40:                                               ; preds = %39, %36
  %41 = load i1, ptr %10, align 1
  br i1 %41, label %42, label %43

42:                                               ; preds = %40
  call void @llvm.lifetime.end.p0(i64 24, ptr %9) #2
  br label %43

43:                                               ; preds = %42, %40
  br i1 %37, label %44, label %55

44:                                               ; preds = %43
  store i1 false, ptr %4, align 1
  store i32 1, ptr %14, align 4
  br label %69

45:                                               ; preds = %32
  %46 = landingpad { ptr, i32 }
          cleanup
  %47 = extractvalue { ptr, i32 } %46, 0
  store ptr %47, ptr %12, align 8
  %48 = extractvalue { ptr, i32 } %46, 1
  store i32 %48, ptr %13, align 4
  %49 = load i1, ptr %11, align 1
  br i1 %49, label %50, label %51

50:                                               ; preds = %45
  call void @_ZN7QStringD2Ev(ptr noundef align 8 dereferenceable_or_null(24) %9) #2
  br label %51

51:                                               ; preds = %50, %45
  %52 = load i1, ptr %10, align 1
  br i1 %52, label %53, label %54

53:                                               ; preds = %51
  call void @llvm.lifetime.end.p0(i64 24, ptr %9) #2
  br label %54

54:                                               ; preds = %53, %51
  call void @llvm.lifetime.end.p0(i64 8, ptr %8) #2
  br label %75

55:                                               ; preds = %43
  %56 = getelementptr inbounds nuw %class.FollowStreamDialog, ptr %15, i32 0, i32 2
  %57 = load ptr, ptr %56, align 8
  %58 = getelementptr inbounds nuw %class.Ui_FollowStreamDialog, ptr %57, i32 0, i32 17
  %59 = load ptr, ptr %58, align 8
  call void @_ZN7QWidget8setFocusEv(ptr noundef align 8 dereferenceable_or_null(40) %59)
  %60 = load ptr, ptr %8, align 8
  %61 = call noundef zeroext i1 @_ZNK9QKeyEvent7matchesEN12QKeySequence11StandardKeyE(ptr noundef align 8 dereferenceable_or_null(82) %60, i32 noundef 22)
  br i1 %61, label %62, label %63

62:                                               ; preds = %55
  store i1 true, ptr %4, align 1
  store i32 1, ptr %14, align 4
  br label %69

63:                                               ; preds = %55
  %64 = load ptr, ptr %8, align 8
  %65 = call noundef zeroext i1 @_ZNK9QKeyEvent7matchesEN12QKeySequence11StandardKeyE(ptr noundef align 8 dereferenceable_or_null(82) %64, i32 noundef 23)
  br i1 %65, label %66, label %67

66:                                               ; preds = %63
  call void @_ZN18FollowStreamDialog8findTextEb(ptr noundef align 8 dereferenceable_or_null(452) %15, i1 noundef zeroext true)
  store i1 true, ptr %4, align 1
  store i32 1, ptr %14, align 4
  br label %69

67:                                               ; preds = %63
  br label %68

68:                                               ; preds = %67
  store i32 0, ptr %14, align 4
  br label %69

69:                                               ; preds = %68, %66, %62, %44
  call void @llvm.lifetime.end.p0(i64 8, ptr %8) #2
  %70 = load i32, ptr %14, align 4
  switch i32 %70, label %80 [
    i32 0, label %71
    i32 1, label %73
  ]

71:                                               ; preds = %69
  br label %72

72:                                               ; preds = %71, %21, %3
  store i1 false, ptr %4, align 1
  br label %73

73:                                               ; preds = %72, %69
  %74 = load i1, ptr %4, align 1
  ret i1 %74

75:                                               ; preds = %54
  %76 = load ptr, ptr %12, align 8
  %77 = load i32, ptr %13, align 4
  %78 = insertvalue { ptr, i32 } poison, ptr %76, 0
  %79 = insertvalue { ptr, i32 } %78, i32 %77, 1
  resume { ptr, i32 } %79

80:                                               ; preds = %69
  unreachable
}