; Function Attrs: mustprogress null_pointer_is_valid sspstrong uwtable
define noundef zeroext i1 @_ZN18FollowStreamDialog11eventFilterEP7QObjectP6QEvent(ptr noundef readonly align 8 captures(none) dereferenceable_or_null(452) %0, ptr noundef readnone captures(none) %1, ptr noundef %2) unnamed_addr #2 align 2 personality ptr @__gxx_personality_v0 {
  %4 = getelementptr inbounds nuw i8, ptr %0, i64 144
  %5 = load ptr, ptr %4, align 8
  %6 = getelementptr inbounds nuw i8, ptr %5, i64 8
  %7 = load ptr, ptr %6, align 8
  %8 = tail call noundef zeroext i1 @_ZNK7QWidget8hasFocusEv(ptr noundef align 8 dereferenceable_or_null(40) %7)
  br i1 %8, label %9, label %.thread20

9:                                                ; preds = %3
  %10 = getelementptr inbounds nuw i8, ptr %2, i64 8
  %11 = load i16, ptr %10, align 8
  %12 = icmp eq i16 %11, 6
  br i1 %12, label %13, label %.thread20

13:                                               ; preds = %9
  %14 = tail call noundef zeroext i1 @_ZNK9QKeyEvent7matchesEN12QKeySequence11StandardKeyE(ptr noundef align 8 dereferenceable_or_null(82) %2, i32 noundef 26)
  br i1 %14, label %.thread20, label %15

15:                                               ; preds = %13
  %16 = tail call noundef zeroext i1 @_ZNK9QKeyEvent7matchesEN12QKeySequence11StandardKeyE(ptr noundef align 8 dereferenceable_or_null(82) %2, i32 noundef 9)
  br i1 %16, label %.thread20, label %17

17:                                               ; preds = %15
  %18 = getelementptr inbounds nuw i8, ptr %2, i64 40
  %19 = load ptr, ptr %18, align 8, !noalias !155
  %20 = getelementptr inbounds nuw i8, ptr %2, i64 56
  %21 = load i64, ptr %20, align 8, !noalias !155
  %.not.i.i.i.i = icmp eq ptr %19, null
  br i1 %.not.i.i.i.i, label %.thread17, label %_ZN17QArrayDataPointerIDsE5derefEv.exit.i.i

.thread17:                                        ; preds = %17
  %22 = icmp eq i64 %21, 0
  br i1 %22, label %.thread20, label %27

_ZN17QArrayDataPointerIDsE5derefEv.exit.i.i:      ; preds = %17
  %23 = atomicrmw add ptr %19, i32 1 seq_cst, align 4, !noalias !155
  %24 = icmp eq i64 %21, 0
  %25 = atomicrmw sub ptr %19, i32 1 seq_cst, align 4
  %.not.i.i = icmp eq i32 %25, 1
  br i1 %.not.i.i, label %26, label %.critedge

26:                                               ; preds = %_ZN17QArrayDataPointerIDsE5derefEv.exit.i.i
  tail call void @_ZN10QArrayData10deallocateEPS_xx(ptr noundef nonnull %19, i64 noundef 2, i64 noundef 8) #29
  br i1 %24, label %.thread20, label %27

.critedge:                                        ; preds = %_ZN17QArrayDataPointerIDsE5derefEv.exit.i.i
  br i1 %24, label %.thread20, label %27

27:                                               ; preds = %26, %.thread17, %.critedge
  %28 = load ptr, ptr %4, align 8
  %29 = getelementptr inbounds nuw i8, ptr %28, i64 136
  %30 = load ptr, ptr %29, align 8
  tail call void @_ZN7QWidget8setFocusEN2Qt11FocusReasonE(ptr noundef align 8 dereferenceable_or_null(40) %30, i32 noundef 7)
  %31 = tail call noundef zeroext i1 @_ZNK9QKeyEvent7matchesEN12QKeySequence11StandardKeyE(ptr noundef align 8 dereferenceable_or_null(82) %2, i32 noundef 22)
  br i1 %31, label %.thread20, label %32

32:                                               ; preds = %27
  %33 = tail call noundef zeroext i1 @_ZNK9QKeyEvent7matchesEN12QKeySequence11StandardKeyE(ptr noundef align 8 dereferenceable_or_null(82) %2, i32 noundef 23)
  br i1 %33, label %34, label %.thread20

34:                                               ; preds = %32
  tail call void @_ZN18FollowStreamDialog8findTextEb(ptr noundef align 8 dereferenceable_or_null(452) %0, i1 noundef zeroext true)
  br label %.thread20

.thread20:                                        ; preds = %13, %15, %26, %.thread17, %27, %.critedge, %34, %3, %9, %32
  %.1 = phi i1 [ false, %32 ], [ false, %9 ], [ false, %3 ], [ false, %26 ], [ false, %.thread17 ], [ true, %27 ], [ false, %.critedge ], [ true, %34 ], [ false, %15 ], [ false, %13 ]
  ret i1 %.1
}